target datalayout = "e-m:e-p270:32:32-p271:32:32-p272:64:64-i64:64-i128:128-f80:128-n8:16:32:64-S128"
target triple = "x86_64-pc-linux-gnu"

@hf_smpp_data_coding = internal global i32 0, align 4
@ett_dcs = internal global i32 0, align 4
@smpp_handle_dcs.gsm_msg_control_fields = internal constant [5 x ptr] [ptr @hf_smpp_dcs_sms_coding_group, ptr @hf_smpp_dcs_reserved, ptr @hf_smpp_dcs_charset, ptr @hf_smpp_dcs_class, ptr null], align 16
@smpp_handle_dcs.gsm_mwi_control_fields = internal constant [5 x ptr] [ptr @hf_smpp_dcs_sms_coding_group, ptr @hf_smpp_dcs_wait_ind, ptr @hf_smpp_dcs_reserved2, ptr @hf_smpp_dcs_wait_type, ptr null], align 16
@smpp_decode_dcs_0_sms = internal global i32 -1, align 4
@smpp_gsm7_unpacked = internal global i8 1, align 1

; Function Attrs: null_pointer_is_valid sspstrong uwtable
define hidden void @smpp_handle_dcs(ptr noundef %0, ptr noundef %1, ptr noundef %2, ptr noundef %3) #0 {
  %5 = alloca ptr, align 8
  %6 = alloca ptr, align 8
  %7 = alloca ptr, align 8
  %8 = alloca ptr, align 8
  %9 = alloca i32, align 4
  %10 = alloca i8, align 1
  %11 = alloca i32, align 4
  %12 = alloca ptr, align 8
  %13 = alloca ptr, align 8
  store ptr %0, ptr %5, align 8
  store ptr %1, ptr %6, align 8
  store ptr %2, ptr %7, align 8
  store ptr %3, ptr %8, align 8
  call void @llvm.lifetime.start.p0(i64 4, ptr %9) #10
  call void @llvm.lifetime.start.p0(i64 1, ptr %10) #10
  call void @llvm.lifetime.start.p0(i64 4, ptr %11) #10
  %14 = load ptr, ptr %7, align 8
  %15 = load i32, ptr %14, align 4
  store i32 %15, ptr %11, align 4
  call void @llvm.lifetime.start.p0(i64 8, ptr %12) #10
  call void @llvm.lifetime.start.p0(i64 8, ptr %13) #10
  %16 = load ptr, ptr %5, align 8
  %17 = load i32, ptr @hf_smpp_data_coding, align 4
  %18 = load ptr, ptr %6, align 8
  %19 = load i32, ptr %11, align 4
  %20 = call ptr @proto_tree_add_item_ret_uint(ptr noundef %16, i32 noundef %17, ptr noundef %18, i32 noundef %19, i32 noundef 1, i32 noundef 0, ptr noundef %9)
  store ptr %20, ptr %13, align 8
  %21 = load i32, ptr %9, align 4
  %22 = and i32 %21, 192
  %23 = icmp ne i32 %22, 0
  br i1 %23, label %24, label %52

24:                                               ; preds = %4
  %25 = load ptr, ptr %13, align 8
  %26 = load i32, ptr @ett_dcs, align 4
  %27 = call ptr @proto_item_add_subtree(ptr noundef %25, i32 noundef %26)
  store ptr %27, ptr %12, align 8
  %28 = load i32, ptr %9, align 4
  %29 = and i32 %28, 240
  %30 = icmp eq i32 %29, 240
  br i1 %30, label %31, label %41

31:                                               ; preds = %24
  %32 = load ptr, ptr %12, align 8
  %33 = load ptr, ptr %6, align 8
  %34 = load i32, ptr %11, align 4
  call void @proto_tree_add_bitmask_list(ptr noundef %32, ptr noundef %33, i32 noundef %34, i32 noundef 1, ptr noundef @smpp_handle_dcs.gsm_msg_control_fields, i32 noundef 0)
  %35 = load i32, ptr %9, align 4
  %36 = and i32 %35, 4
  %37 = icmp eq i32 %36, 4
  br i1 %37, label %38, label %39

38:                                               ; preds = %31
  store i8 2, ptr %10, align 1
  br label %40

39:                                               ; preds = %31
  store i8 -15, ptr %10, align 1
  br label %40

40:                                               ; preds = %39, %38
  br label %51

41:                                               ; preds = %24
  %42 = load ptr, ptr %12, align 8
  %43 = load ptr, ptr %6, align 8
  %44 = load i32, ptr %11, align 4
  call void @proto_tree_add_bitmask_list(ptr noundef %42, ptr noundef %43, i32 noundef %44, i32 noundef 1, ptr noundef @smpp_handle_dcs.gsm_mwi_control_fields, i32 noundef 0)
  %45 = load i32, ptr %9, align 4
  %46 = and i32 %45, 240
  %47 = icmp eq i32 %46, 224
  br i1 %47, label %48, label %49

48:                                               ; preds = %41
  store i8 8, ptr %10, align 1
  br label %50

49:                                               ; preds = %41
  store i8 -15, ptr %10, align 1
  br label %50

50:                                               ; preds = %49, %48
  br label %51

51:                                               ; preds = %50, %40
  br label %55

52:                                               ; preds = %4
  %53 = load i32, ptr %9, align 4
  %54 = trunc i32 %53 to i8
  store i8 %54, ptr %10, align 1
  br label %55

55:                                               ; preds = %52, %51
  %56 = load ptr, ptr %8, align 8
  %57 = icmp ne ptr %56, null
  br i1 %57, label %58, label %86

58:                                               ; preds = %55
  %59 = load i8, ptr %10, align 1
  %60 = zext i8 %59 to i32
  switch i32 %60, label %83 [
    i32 0, label %61
    i32 1, label %64
    i32 2, label %66
    i32 3, label %68
    i32 6, label %70
    i32 7, label %72
    i32 8, label %74
    i32 14, label %76
    i32 241, label %78
  ]

61:                                               ; preds = %58
  %62 = load i32, ptr @smpp_decode_dcs_0_sms, align 4
  %63 = load ptr, ptr %8, align 8
  store i32 %62, ptr %63, align 4
  br label %85

64:                                               ; preds = %58
  %65 = load ptr, ptr %8, align 8
  store i32 0, ptr %65, align 4
  br label %85

66:                                               ; preds = %58
  %67 = load ptr, ptr %8, align 8
  store i32 -1, ptr %67, align 4
  br label %85

68:                                               ; preds = %58
  %69 = load ptr, ptr %8, align 8
  store i32 10, ptr %69, align 4
  br label %85

70:                                               ; preds = %58
  %71 = load ptr, ptr %8, align 8
  store i32 18, ptr %71, align 4
  br label %85

72:                                               ; preds = %58
  %73 = load ptr, ptr %8, align 8
  store i32 24, ptr %73, align 4
  br label %85

74:                                               ; preds = %58
  %75 = load ptr, ptr %8, align 8
  store i32 6, ptr %75, align 4
  br label %85

76:                                               ; preds = %58
  %77 = load ptr, ptr %8, align 8
  store i32 82, ptr %77, align 4
  br label %85

78:                                               ; preds = %58
  %79 = load i8, ptr @smpp_gsm7_unpacked, align 1, !range !6, !noundef !7
  %80 = trunc i8 %79 to i1
  %81 = select i1 %80, i32 76, i32 44
  %82 = load ptr, ptr %8, align 8
  store i32 %81, ptr %82, align 4
  br label %85

83:                                               ; preds = %58
  %84 = load ptr, ptr %8, align 8
  store i32 -1, ptr %84, align 4
  br label %85

85:                                               ; preds = %83, %78, %76, %74, %72, %70, %68, %66, %64, %61
  br label %86

86:                                               ; preds = %85, %55
  %87 = load ptr, ptr %7, align 8
  %88 = load i32, ptr %87, align 4
  %89 = add i32 %88, 1
  store i32 %89, ptr %87, align 4
  call void @llvm.lifetime.end.p0(i64 8, ptr %13) #10
  call void @llvm.lifetime.end.p0(i64 8, ptr %12) #10
  call void @llvm.lifetime.end.p0(i64 4, ptr %11) #10
  call void @llvm.lifetime.end.p0(i64 1, ptr %10) #10
  call void @llvm.lifetime.end.p0(i64 4, ptr %9) #10
  ret void
}