; Function Attrs: null_pointer_is_valid sspstrong uwtable
define hidden void @smpp_handle_dcs(ptr noundef %0, ptr noundef %1, ptr noundef captures(none) %2, ptr noundef writeonly captures(address_is_null) %3) local_unnamed_addr #0 {
  %5 = alloca i32, align 4
  call void @llvm.lifetime.start.p0(i64 4, ptr nonnull %5) #10
  %6 = load i32, ptr %2, align 4
  %7 = load i32, ptr @hf_smpp_data_coding, align 4
  %8 = call ptr @proto_tree_add_item_ret_uint(ptr noundef %0, i32 noundef %7, ptr noundef %1, i32 noundef %6, i32 noundef 1, i32 noundef 0, ptr noundef nonnull %5)
  %9 = load i32, ptr %5, align 4
  %10 = and i32 %9, 192
  %.not = icmp eq i32 %10, 0
  br i1 %.not, label %24, label %11

11:                                               ; preds = %4
  %12 = load i32, ptr @ett_dcs, align 4
  %13 = call ptr @proto_item_add_subtree(ptr noundef %8, i32 noundef %12)
  %14 = load i32, ptr %5, align 4
  %15 = and i32 %14, 240
  %16 = icmp eq i32 %15, 240
  br i1 %16, label %17, label %20

17:                                               ; preds = %11
  call void @proto_tree_add_bitmask_list(ptr noundef %13, ptr noundef %1, i32 noundef %6, i32 noundef 1, ptr noundef nonnull @smpp_handle_dcs.gsm_msg_control_fields, i32 noundef 0)
  %18 = load i32, ptr %5, align 4
  %19 = and i32 %18, 4
  %.not24 = icmp eq i32 %19, 0
  %. = select i1 %.not24, i8 -15, i8 2
  br label %26

20:                                               ; preds = %11
  call void @proto_tree_add_bitmask_list(ptr noundef %13, ptr noundef %1, i32 noundef %6, i32 noundef 1, ptr noundef nonnull @smpp_handle_dcs.gsm_mwi_control_fields, i32 noundef 0)
  %21 = load i32, ptr %5, align 4
  %22 = and i32 %21, 240
  %23 = icmp eq i32 %22, 224
  %.26 = select i1 %23, i8 8, i8 -15
  br label %26

24:                                               ; preds = %4
  %25 = trunc i32 %9 to i8
  br label %26

26:                                               ; preds = %20, %17, %24
  %.0 = phi i8 [ %25, %24 ], [ %., %17 ], [ %.26, %20 ]
  %.not25 = icmp eq ptr %3, null
  br i1 %.not25, label %40, label %27

27:                                               ; preds = %26
  switch i8 %.0, label %39 [
    i8 0, label %28
    i8 1, label %.sink.split
    i8 -15, label %35
    i8 3, label %30
    i8 6, label %31
    i8 7, label %32
    i8 8, label %33
    i8 14, label %34
  ]

28:                                               ; preds = %27
  %29 = load i32, ptr @smpp_decode_dcs_0_sms, align 4
  br label %.sink.split

30:                                               ; preds = %27
  br label %.sink.split

31:                                               ; preds = %27
  br label %.sink.split

32:                                               ; preds = %27
  br label %.sink.split

33:                                               ; preds = %27
  br label %.sink.split

34:                                               ; preds = %27
  br label %.sink.split

35:                                               ; preds = %27
  %36 = load i8, ptr @smpp_gsm7_unpacked, align 1, !range !6, !noundef !7
  %37 = trunc nuw i8 %36 to i1
  %38 = select i1 %37, i32 76, i32 44
  br label %.sink.split

39:                                               ; preds = %27
  br label %.sink.split

.sink.split:                                      ; preds = %27, %39, %35, %34, %33, %32, %31, %30, %28
  %.sink = phi i32 [ %29, %28 ], [ 10, %30 ], [ 18, %31 ], [ 24, %32 ], [ 6, %33 ], [ 82, %34 ], [ %38, %35 ], [ -1, %39 ], [ 0, %27 ]
  store i32 %.sink, ptr %3, align 4
  br label %40

40:                                               ; preds = %.sink.split, %26
  %41 = load i32, ptr %2, align 4
  %42 = add i32 %41, 1
  store i32 %42, ptr %2, align 4
  call void @llvm.lifetime.end.p0(i64 4, ptr nonnull %5) #10
  ret void
}